; Function Attrs: mustprogress uwtable
define noundef double @_ZNK8QuantLib15LinearTsrPricer4GsrGERKNS_4DateE(ptr noundef nonnull align 8 dereferenceable(360) %this, ptr noundef nonnull align 8 dereferenceable(8) %d) local_unnamed_addr #7 align 2 {
entry:
  %ref.tmp = alloca %"class.QuantLib::Date", align 8
  %ref.tmp2 = alloca %"class.QuantLib::Date", align 8
  %volDayCounter_ = getelementptr inbounds nuw i8, ptr %this, i64 312
  %fixingDate_ = getelementptr inbounds nuw i8, ptr %this, i64 136
  call void @llvm.lifetime.start.p0(i64 8, ptr nonnull %ref.tmp) #27
  call void @_ZN8QuantLib4DateC1Ev(ptr noundef nonnull align 8 dereferenceable(8) %ref.tmp)
  call void @llvm.lifetime.start.p0(i64 8, ptr nonnull %ref.tmp2) #27
  call void @_ZN8QuantLib4DateC1Ev(ptr noundef nonnull align 8 dereferenceable(8) %ref.tmp2)
  %call = call noundef double @_ZNK8QuantLib10DayCounter12yearFractionERKNS_4DateES3_S3_S3_(ptr noundef nonnull align 8 dereferenceable(16) %volDayCounter_, ptr noundef nonnull align 8 dereferenceable(8) %fixingDate_, ptr noundef nonnull align 8 dereferenceable(8) %d, ptr noundef nonnull align 8 dereferenceable(8) %ref.tmp, ptr noundef nonnull align 8 dereferenceable(8) %ref.tmp2)
  call void @llvm.lifetime.end.p0(i64 8, ptr nonnull %ref.tmp2) #27
  call void @llvm.lifetime.end.p0(i64 8, ptr nonnull %ref.tmp) #27
  %meanReversion_ = getelementptr inbounds nuw i8, ptr %this, i64 48
  %call3 = call noundef nonnull align 8 dereferenceable(16) ptr @_ZNK8QuantLib6HandleINS_5QuoteEEptEv(ptr noundef nonnull align 8 dereferenceable(16) %meanReversion_)
  %0 = load ptr, ptr %call3, align 8, !tbaa !87
  %cmp.not.i = icmp eq ptr %0, null
  br i1 %cmp.not.i, label %cond.false.i, label %_ZNK5boost10shared_ptrIN8QuantLib5QuoteEEptEv.exit, !prof !58

cond.false.i:                                     ; preds = %entry
  call void @_ZN5boost16assertion_failedEPKcS1_S1_l(ptr noundef nonnull @.str.15, ptr noundef nonnull @__PRETTY_FUNCTION__._ZNK5boost10shared_ptrIN8QuantLib5QuoteEEptEv, ptr noundef nonnull @.str.16, i64 noundef 784)
  %.pre.i = load ptr, ptr %call3, align 8, !tbaa !87
  br label %_ZNK5boost10shared_ptrIN8QuantLib5QuoteEEptEv.exit

_ZNK5boost10shared_ptrIN8QuantLib5QuoteEEptEv.exit: ; preds = %entry, %cond.false.i
  %1 = phi ptr [ %0, %entry ], [ %.pre.i, %cond.false.i ]
  %vtable = load ptr, ptr %1, align 8, !tbaa !35
  %vfn = getelementptr inbounds i8, ptr %vtable, i64 16
  %2 = load ptr, ptr %vfn, align 8
  %call5 = call noundef double %2(ptr noundef nonnull align 8 dereferenceable(8) %1)
  %3 = call double @llvm.fabs.f64(double %call5)
  %cmp = fcmp olt double %3, 1.000000e-04
  br i1 %cmp, label %cleanup, label %if.else

if.else:                                          ; preds = %_ZNK5boost10shared_ptrIN8QuantLib5QuoteEEptEv.exit
  %call7 = call noundef nonnull align 8 dereferenceable(16) ptr @_ZNK8QuantLib6HandleINS_5QuoteEEptEv(ptr noundef nonnull align 8 dereferenceable(16) %meanReversion_)
  %4 = load ptr, ptr %call7, align 8, !tbaa !87
  %cmp.not.i2 = icmp eq ptr %4, null
  br i1 %cmp.not.i2, label %cond.false.i3, label %_ZNK5boost10shared_ptrIN8QuantLib5QuoteEEptEv.exit5, !prof !58

cond.false.i3:                                    ; preds = %if.else
  call void @_ZN5boost16assertion_failedEPKcS1_S1_l(ptr noundef nonnull @.str.15, ptr noundef nonnull @__PRETTY_FUNCTION__._ZNK5boost10shared_ptrIN8QuantLib5QuoteEEptEv, ptr noundef nonnull @.str.16, i64 noundef 784)
  %.pre.i4 = load ptr, ptr %call7, align 8, !tbaa !87
  br label %_ZNK5boost10shared_ptrIN8QuantLib5QuoteEEptEv.exit5

_ZNK5boost10shared_ptrIN8QuantLib5QuoteEEptEv.exit5: ; preds = %if.else, %cond.false.i3
  %5 = phi ptr [ %4, %if.else ], [ %.pre.i4, %cond.false.i3 ]
  %vtable9 = load ptr, ptr %5, align 8, !tbaa !35
  %vfn10 = getelementptr inbounds i8, ptr %vtable9, i64 16
  %6 = load ptr, ptr %vfn10, align 8
  %call11 = call noundef double %6(ptr noundef nonnull align 8 dereferenceable(8) %5)
  %fneg = fneg double %call11
  %mul = fmul double %call, %fneg
  %call12 = call double @exp(double noundef %mul) #27, !tbaa !71
  %sub = fsub double 1.000000e+00, %call12
  %call14 = call noundef nonnull align 8 dereferenceable(16) ptr @_ZNK8QuantLib6HandleINS_5QuoteEEptEv(ptr noundef nonnull align 8 dereferenceable(16) %meanReversion_)
  %7 = load ptr, ptr %call14, align 8, !tbaa !87
  %cmp.not.i6 = icmp eq ptr %7, null
  br i1 %cmp.not.i6, label %cond.false.i7, label %_ZNK5boost10shared_ptrIN8QuantLib5QuoteEEptEv.exit9, !prof !58

cond.false.i7:                                    ; preds = %_ZNK5boost10shared_ptrIN8QuantLib5QuoteEEptEv.exit5
  call void @_ZN5boost16assertion_failedEPKcS1_S1_l(ptr noundef nonnull @.str.15, ptr noundef nonnull @__PRETTY_FUNCTION__._ZNK5boost10shared_ptrIN8QuantLib5QuoteEEptEv, ptr noundef nonnull @.str.16, i64 noundef 784)
  %.pre.i8 = load ptr, ptr %call14, align 8, !tbaa !87
  br label %_ZNK5boost10shared_ptrIN8QuantLib5QuoteEEptEv.exit9

_ZNK5boost10shared_ptrIN8QuantLib5QuoteEEptEv.exit9: ; preds = %_ZNK5boost10shared_ptrIN8QuantLib5QuoteEEptEv.exit5, %cond.false.i7
  %8 = phi ptr [ %7, %_ZNK5boost10shared_ptrIN8QuantLib5QuoteEEptEv.exit5 ], [ %.pre.i8, %cond.false.i7 ]
  %vtable16 = load ptr, ptr %8, align 8, !tbaa !35
  %vfn17 = getelementptr inbounds i8, ptr %vtable16, i64 16
  %9 = load ptr, ptr %vfn17, align 8
  %call18 = call noundef double %9(ptr noundef nonnull align 8 dereferenceable(8) %8)
  %div = fdiv double %sub, %call18
  br label %cleanup

cleanup:                                          ; preds = %_ZNK5boost10shared_ptrIN8QuantLib5QuoteEEptEv.exit, %_ZNK5boost10shared_ptrIN8QuantLib5QuoteEEptEv.exit9
  %retval.0 = phi double [ %div, %_ZNK5boost10shared_ptrIN8QuantLib5QuoteEEptEv.exit9 ], [ %call, %_ZNK5boost10shared_ptrIN8QuantLib5QuoteEEptEv.exit ]
  ret double %retval.0
}